target datalayout = "e-m:e-p270:32:32-p271:32:32-p272:64:64-i64:64-i128:128-f80:128-n8:16:32:64-S128"
target triple = "x86_64-pc-linux-gnu"

%struct.x509_store_ctx_st = type { ptr, i32, ptr, ptr, ptr, ptr, ptr, ptr, ptr, ptr, ptr, ptr, ptr, ptr, ptr, ptr, ptr, ptr, ptr, i32, i32, ptr, ptr, i32, i32, i32, ptr, ptr, ptr, i32, i32, ptr, %struct.crypto_ex_data_st }
%struct.crypto_ex_data_st = type { ptr }

; Function Attrs: nounwind uwtable
define hidden void @X509_STORE_CTX_set0_param(ptr noundef %0, ptr noundef %1) #0 {
  %3 = alloca ptr, align 8
  %4 = alloca ptr, align 8
  store ptr %0, ptr %3, align 8, !tbaa !6
  store ptr %1, ptr %4, align 8, !tbaa !25
  %5 = load ptr, ptr %3, align 8, !tbaa !6
  %6 = getelementptr inbounds nuw %struct.x509_store_ctx_st, ptr %5, i32 0, i32 5
  %7 = load ptr, ptr %6, align 8, !tbaa !15
  %8 = icmp ne ptr %7, null
  br i1 %8, label %9, label %13

9:                                                ; preds = %2
  %10 = load ptr, ptr %3, align 8, !tbaa !6
  %11 = getelementptr inbounds nuw %struct.x509_store_ctx_st, ptr %10, i32 0, i32 5
  %12 = load ptr, ptr %11, align 8, !tbaa !15
  call void @X509_VERIFY_PARAM_free(ptr noundef %12)
  br label %13

13:                                               ; preds = %9, %2
  %14 = load ptr, ptr %4, align 8, !tbaa !25
  %15 = load ptr, ptr %3, align 8, !tbaa !6
  %16 = getelementptr inbounds nuw %struct.x509_store_ctx_st, ptr %15, i32 0, i32 5
  store ptr %14, ptr %16, align 8, !tbaa !15
  ret void
}