; Function Attrs: nounwind uwtable
define hidden void @X509_STORE_CTX_set0_param(ptr noundef captures(none) %0, ptr noundef %1) local_unnamed_addr #0 {
  %3 = getelementptr inbounds nuw i8, ptr %0, i64 40
  %4 = load ptr, ptr %3, align 8, !tbaa !6
  %.not = icmp eq ptr %4, null
  br i1 %.not, label %6, label %5

5:                                                ; preds = %2
  tail call void @X509_VERIFY_PARAM_free(ptr noundef nonnull %4) #14
  br label %6

6:                                                ; preds = %5, %2
  store ptr %1, ptr %3, align 8, !tbaa !6
  ret void
}